#include <math.h>
#include <stdio.h>
#include <stdlib.h>
#include <string.h>

int main()
{
	char a[20],b[20];
	int i,j,k;
	int m,n;
	m=0;
	n=0;
    for(i=0;i<20;i++)
	{
		scanf("%c",&a[i]);
		if(a[i]==' ')
			break;
	}
   for(j=0;j<20;j++)
	{
		scanf("%c",&b[j]);
		if(b[j]=='\n')
			break;
	}
for(k=0;k<i;k++)
{
	m=m+a[k];
}
for(k=0;k<j;k++)
{
	n=n+b[k];
}
if(m==n)
printf("YES");
else 
printf("NO");
  return 0;
}

